; ModuleID = 'source-C-CXX/25/565.c'
source_filename = "source-C-CXX/25/565.c"
target datalayout = "e-m:e-p270:32:32-p271:32:32-p272:64:64-i64:64-f80:128-n8:16:32:64-S128"
target triple = "x86_64-pc-linux-gnu"

@.str = private unnamed_addr constant [3 x i8] c"%s\00", align 1
@.str.1 = private unnamed_addr constant [4 x i8] c" %s\00", align 1

; Function Attrs: nounwind sspstrong uwtable
define dso_local i32 @main() local_unnamed_addr #0 {
  %1 = alloca [100 x i8], align 16
  %2 = alloca [50 x [20 x i8]], align 16
  %3 = getelementptr inbounds [100 x i8], [100 x i8]* %1, i64 0, i64 0
  call void @llvm.lifetime.start.p0i8(i64 100, i8* nonnull %3) #5
  %4 = getelementptr inbounds [50 x [20 x i8]], [50 x [20 x i8]]* %2, i64 0, i64 0, i64 0
  call void @llvm.lifetime.start.p0i8(i64 1000, i8* nonnull %4) #5
  %5 = call i32 (i8*, ...) bitcast (i32 (...)* @gets to i32 (i8*, ...)*)(i8* nonnull %3) #5
  %6 = call i64 @strlen(i8* noundef nonnull %3) #6
  %7 = trunc i64 %6 to i32
  %8 = icmp sgt i32 %7, 0
  br i1 %8, label %11, label %9

9:                                                ; preds = %0
  %10 = getelementptr inbounds [50 x [20 x i8]], [50 x [20 x i8]]* %2, i64 0, i64 0, i64 0
  store i8 0, i8* %10, align 16, !tbaa !5
  br label %45

11:                                               ; preds = %0
  %12 = and i64 %6, 4294967295
  br label %13

13:                                               ; preds = %11, %35
  %14 = phi i64 [ 0, %11 ], [ %38, %35 ]
  %15 = phi i32 [ 0, %11 ], [ %37, %35 ]
  %16 = phi i32 [ 0, %11 ], [ %36, %35 ]
  %17 = getelementptr inbounds [100 x i8], [100 x i8]* %1, i64 0, i64 %14
  %18 = load i8, i8* %17, align 1, !tbaa !5
  %19 = icmp eq i8 %18, 32
  br i1 %19, label %20, label %30

20:                                               ; preds = %13
  %21 = add nsw i64 %14, -1
  %22 = getelementptr inbounds [100 x i8], [100 x i8]* %1, i64 0, i64 %21
  %23 = load i8, i8* %22, align 1, !tbaa !5
  %24 = icmp eq i8 %23, 32
  br i1 %24, label %35, label %25

25:                                               ; preds = %20
  %26 = sext i32 %16 to i64
  %27 = sext i32 %15 to i64
  %28 = getelementptr inbounds [50 x [20 x i8]], [50 x [20 x i8]]* %2, i64 0, i64 %26, i64 %27
  store i8 0, i8* %28, align 1, !tbaa !5
  %29 = add nsw i32 %16, 1
  br label %35

30:                                               ; preds = %13
  %31 = sext i32 %16 to i64
  %32 = sext i32 %15 to i64
  %33 = getelementptr inbounds [50 x [20 x i8]], [50 x [20 x i8]]* %2, i64 0, i64 %31, i64 %32
  store i8 %18, i8* %33, align 1, !tbaa !5
  %34 = add nsw i32 %15, 1
  br label %35

35:                                               ; preds = %20, %25, %30
  %36 = phi i32 [ %29, %25 ], [ %16, %30 ], [ %16, %20 ]
  %37 = phi i32 [ 0, %25 ], [ %34, %30 ], [ %15, %20 ]
  %38 = add nuw nsw i64 %14, 1
  %39 = icmp eq i64 %38, %12
  br i1 %39, label %40, label %13, !llvm.loop !8

40:                                               ; preds = %35
  %41 = sext i32 %36 to i64
  %42 = sext i32 %37 to i64
  %43 = getelementptr inbounds [50 x [20 x i8]], [50 x [20 x i8]]* %2, i64 0, i64 %41, i64 %42
  store i8 0, i8* %43, align 1, !tbaa !5
  %44 = icmp slt i32 %36, 0
  br i1 %44, label %57, label %45

45:                                               ; preds = %9, %40
  %46 = phi i32 [ 0, %9 ], [ %36, %40 ]
  %47 = add nuw i32 %46, 1
  %48 = zext i32 %47 to i64
  %49 = call i32 (i8*, ...) @printf(i8* nonnull dereferenceable(1) getelementptr inbounds ([3 x i8], [3 x i8]* @.str, i64 0, i64 0), i8* nonnull %4)
  %50 = icmp eq i32 %46, 0
  br i1 %50, label %57, label %51

51:                                               ; preds = %45, %51
  %52 = phi i64 [ %55, %51 ], [ 1, %45 ]
  %53 = getelementptr inbounds [50 x [20 x i8]], [50 x [20 x i8]]* %2, i64 0, i64 %52, i64 0
  %54 = call i32 (i8*, ...) @printf(i8* nonnull dereferenceable(1) getelementptr inbounds ([4 x i8], [4 x i8]* @.str.1, i64 0, i64 0), i8* nonnull %53)
  %55 = add nuw nsw i64 %52, 1
  %56 = icmp eq i64 %55, %48
  br i1 %56, label %57, label %51, !llvm.loop !10

57:                                               ; preds = %51, %45, %40
  call void @llvm.lifetime.end.p0i8(i64 1000, i8* nonnull %4) #5
  call void @llvm.lifetime.end.p0i8(i64 100, i8* nonnull %3) #5
  ret i32 0
}

; Function Attrs: argmemonly mustprogress nofree nosync nounwind willreturn
declare void @llvm.lifetime.start.p0i8(i64 immarg, i8* nocapture) #1

declare i32 @gets(...) local_unnamed_addr #2

; Function Attrs: argmemonly mustprogress nofree nounwind readonly willreturn
declare i64 @strlen(i8* nocapture) local_unnamed_addr #3

; Function Attrs: nofree nounwind
declare noundef i32 @printf(i8* nocapture noundef readonly, ...) local_unnamed_addr #4

; Function Attrs: argmemonly mustprogress nofree nosync nounwind willreturn
declare void @llvm.lifetime.end.p0i8(i64 immarg, i8* nocapture) #1


!llvm.module.flags = !{!0, !1, !2, !3}
!llvm.ident = !{!4}

!0 = !{i32 1, !"wchar_size", i32 4}
!1 = !{i32 7, !"PIC Level", i32 2}
!2 = !{i32 7, !"PIE Level", i32 2}
!3 = !{i32 7, !"uwtable", i32 1}
!4 = !{!"clang version 13.0.0"}
!5 = !{!6, !6, i64 0}
!6 = !{!"omnipotent char", !7, i64 0}
!7 = !{!"Simple C/C++ TBAA"}
!8 = distinct !{!8, !9}
!9 = !{!"llvm.loop.mustprogress"}
!10 = distinct !{!10, !9, !11}
!11 = !{!"llvm.loop.peeled.count", i32 1}
